target datalayout = "e-m:e-p270:32:32-p271:32:32-p272:64:64-i64:64-i128:128-f80:128-n8:16:32:64-S128"
target triple = "x86_64-unknown-linux-gnu"

%"class.node::inspector::protocol::span" = type { ptr, i64 }
%"class.node::inspector::protocol::cbor::CBORTokenizer" = type { %"class.node::inspector::protocol::span", i32, %"struct.node::inspector::protocol::Status", i64, i32, i64 }
%"struct.node::inspector::protocol::Status" = type { i32, i64 }

; Function Attrs: mustprogress nounwind uwtable
define linkonce_odr dso_local noundef i64 @_ZNSt14numeric_limitsImE3maxEv() #0 comdat align 2 {
entry:
  ret i64 -1
}

; Function Attrs: mustprogress nounwind uwtable
define linkonce_odr dso_local noundef i64 @_ZN4node9inspector8protocol6Status4nposEv() #0 comdat align 2 {
entry:
  %call = call noundef i64 @_ZNSt14numeric_limitsImE3maxEv() #13
  ret i64 %call
}

; Function Attrs: mustprogress nounwind uwtable
define linkonce_odr dso_local void @_ZN4node9inspector8protocol6StatusC2Ev(ptr noundef nonnull align 8 dereferenceable(16) %this) unnamed_addr #0 comdat align 2 {
entry:
  %this.addr = alloca ptr, align 8
  store ptr %this, ptr %this.addr, align 8
  %this1 = load ptr, ptr %this.addr, align 8
  %error = getelementptr inbounds %"struct.node::inspector::protocol::Status", ptr %this1, i32 0, i32 0
  store i32 0, ptr %error, align 8
  %pos = getelementptr inbounds %"struct.node::inspector::protocol::Status", ptr %this1, i32 0, i32 1
  %call = call noundef i64 @_ZN4node9inspector8protocol6Status4nposEv()
  store i64 %call, ptr %pos, align 8
  ret void
}

; Function Attrs: mustprogress nounwind uwtable
define dso_local void @_ZN4node9inspector8protocol4cbor13CBORTokenizerC2ENS1_4spanIhEE(ptr noundef nonnull align 8 dereferenceable(64) %this, ptr %bytes.coerce0, i64 %bytes.coerce1) unnamed_addr #0 align 2 {
entry:
  %bytes = alloca %"class.node::inspector::protocol::span", align 8
  %this.addr = alloca ptr, align 8
  %0 = getelementptr inbounds { ptr, i64 }, ptr %bytes, i32 0, i32 0
  store ptr %bytes.coerce0, ptr %0, align 8
  %1 = getelementptr inbounds { ptr, i64 }, ptr %bytes, i32 0, i32 1
  store i64 %bytes.coerce1, ptr %1, align 8
  store ptr %this, ptr %this.addr, align 8
  %this1 = load ptr, ptr %this.addr, align 8
  %bytes_ = getelementptr inbounds %"class.node::inspector::protocol::cbor::CBORTokenizer", ptr %this1, i32 0, i32 0
  call void @llvm.memcpy.p0.p0.i64(ptr align 8 %bytes_, ptr align 8 %bytes, i64 16, i1 false)
  %status_ = getelementptr inbounds %"class.node::inspector::protocol::cbor::CBORTokenizer", ptr %this1, i32 0, i32 2
  call void @_ZN4node9inspector8protocol6StatusC2Ev(ptr noundef nonnull align 8 dereferenceable(16) %status_)
  call void @_ZN4node9inspector8protocol4cbor13CBORTokenizer13ReadNextTokenEb(ptr noundef nonnull align 8 dereferenceable(64) %this1, i1 noundef zeroext false)
  ret void
}