; Function Attrs: mustprogress nofree norecurse nosync nounwind memory(read, argmem: readwrite, inaccessiblemem: none) uwtable
define dso_local void @_ZN4node9inspector8protocol4cbor13CBORTokenizerC2ENS1_4spanIhEE(ptr noundef nonnull align 8 dereferenceable(64) %this, ptr %bytes.coerce0, i64 %bytes.coerce1) unnamed_addr #7 align 2 {
entry:
  store ptr %bytes.coerce0, ptr %this, align 8
  %bytes.sroa.2.0.bytes_.sroa_idx = getelementptr inbounds i8, ptr %this, i64 8
  store i64 %bytes.coerce1, ptr %bytes.sroa.2.0.bytes_.sroa_idx, align 8
  %status_ = getelementptr inbounds i8, ptr %this, i64 24
  store i32 0, ptr %status_, align 8
  %pos.i = getelementptr inbounds i8, ptr %this, i64 32
  store i64 -1, ptr %pos.i, align 8
  tail call void @_ZN4node9inspector8protocol4cbor13CBORTokenizer13ReadNextTokenEb(ptr noundef nonnull align 8 dereferenceable(64) %this, i1 noundef zeroext false)
  ret void
}